; ModuleID = '15/2311.c'
source_filename = "15/2311.c"
target datalayout = "e-m:e-p270:32:32-p271:32:32-p272:64:64-i64:64-f80:128-n8:16:32:64-S128"
target triple = "x86_64-pc-linux-gnu"

@.str = private unnamed_addr constant [3 x i8] c"%d\00", align 1

; Function Attrs: noinline nounwind uwtable
define dso_local i32 @main() #0 {
  %1 = alloca i32, align 4
  %2 = alloca i32, align 4
  %3 = alloca [1001 x [1001 x i32]], align 16
  %4 = alloca i32, align 4
  %5 = alloca i32, align 4
  %6 = alloca i32, align 4
  %7 = alloca i32, align 4
  %8 = alloca i32, align 4
  %9 = alloca i32, align 4
  %10 = alloca i32, align 4
  %11 = alloca i32, align 4
  %12 = alloca i32, align 4
  %13 = alloca i32, align 4
  %14 = alloca i32, align 4
  store i32 0, i32* %1, align 4
  %15 = call i32 (i8*, ...) @__isoc99_scanf(i8* getelementptr inbounds ([3 x i8], [3 x i8]* @.str, i64 0, i64 0), i32* %2)
  %16 = bitcast [1001 x [1001 x i32]]* %3 to i8*
  call void @llvm.memset.p0i8.i64(i8* align 16 %16, i8 0, i64 4008004, i1 false)
  store i32 0, i32* %6, align 4
  store i32 0, i32* %4, align 4
  br label %17

17:                                               ; preds = %38, %0
  %18 = load i32, i32* %4, align 4
  %19 = load i32, i32* %2, align 4
  %20 = icmp slt i32 %18, %19
  br i1 %20, label %21, label %41

21:                                               ; preds = %17
  store i32 0, i32* %5, align 4
  br label %22

22:                                               ; preds = %34, %21
  %23 = load i32, i32* %5, align 4
  %24 = load i32, i32* %2, align 4
  %25 = icmp slt i32 %23, %24
  br i1 %25, label %26, label %37

26:                                               ; preds = %22
  %27 = load i32, i32* %4, align 4
  %28 = sext i32 %27 to i64
  %29 = getelementptr inbounds [1001 x [1001 x i32]], [1001 x [1001 x i32]]* %3, i64 0, i64 %28
  %30 = load i32, i32* %5, align 4
  %31 = sext i32 %30 to i64
  %32 = getelementptr inbounds [1001 x i32], [1001 x i32]* %29, i64 0, i64 %31
  %33 = call i32 (i8*, ...) @__isoc99_scanf(i8* getelementptr inbounds ([3 x i8], [3 x i8]* @.str, i64 0, i64 0), i32* %32)
  br label %34

34:                                               ; preds = %26
  %35 = load i32, i32* %5, align 4
  %36 = add nsw i32 %35, 1
  store i32 %36, i32* %5, align 4
  br label %22

37:                                               ; preds = %22
  br label %38

38:                                               ; preds = %37
  %39 = load i32, i32* %4, align 4
  %40 = add nsw i32 %39, 1
  store i32 %40, i32* %4, align 4
  br label %17

41:                                               ; preds = %17
  store i32 0, i32* %4, align 4
  br label %42

42:                                               ; preds = %184, %41
  %43 = load i32, i32* %4, align 4
  %44 = load i32, i32* %2, align 4
  %45 = icmp slt i32 %43, %44
  br i1 %45, label %46, label %187

46:                                               ; preds = %42
  store i32 0, i32* %5, align 4
  br label %47

47:                                               ; preds = %180, %46
  %48 = load i32, i32* %5, align 4
  %49 = load i32, i32* %2, align 4
  %50 = icmp slt i32 %48, %49
  br i1 %50, label %51, label %183

51:                                               ; preds = %47
  %52 = load i32, i32* %4, align 4
  %53 = sext i32 %52 to i64
  %54 = getelementptr inbounds [1001 x [1001 x i32]], [1001 x [1001 x i32]]* %3, i64 0, i64 %53
  %55 = load i32, i32* %5, align 4
  %56 = sext i32 %55 to i64
  %57 = getelementptr inbounds [1001 x i32], [1001 x i32]* %54, i64 0, i64 %56
  %58 = load i32, i32* %57, align 4
  %59 = icmp eq i32 %58, 0
  br i1 %59, label %60, label %83

60:                                               ; preds = %51
  %61 = load i32, i32* %4, align 4
  %62 = sext i32 %61 to i64
  %63 = getelementptr inbounds [1001 x [1001 x i32]], [1001 x [1001 x i32]]* %3, i64 0, i64 %62
  %64 = load i32, i32* %5, align 4
  %65 = add nsw i32 %64, 1
  %66 = sext i32 %65 to i64
  %67 = getelementptr inbounds [1001 x i32], [1001 x i32]* %63, i64 0, i64 %66
  %68 = load i32, i32* %67, align 4
  %69 = icmp eq i32 %68, 0
  br i1 %69, label %70, label %83

70:                                               ; preds = %60
  %71 = load i32, i32* %4, align 4
  %72 = add nsw i32 %71, 1
  %73 = sext i32 %72 to i64
  %74 = getelementptr inbounds [1001 x [1001 x i32]], [1001 x [1001 x i32]]* %3, i64 0, i64 %73
  %75 = load i32, i32* %5, align 4
  %76 = sext i32 %75 to i64
  %77 = getelementptr inbounds [1001 x i32], [1001 x i32]* %74, i64 0, i64 %76
  %78 = load i32, i32* %77, align 4
  %79 = icmp eq i32 %78, 0
  br i1 %79, label %80, label %83

80:                                               ; preds = %70
  %81 = load i32, i32* %4, align 4
  store i32 %81, i32* %7, align 4
  %82 = load i32, i32* %5, align 4
  store i32 %82, i32* %8, align 4
  br label %83

83:                                               ; preds = %80, %70, %60, %51
  %84 = load i32, i32* %4, align 4
  %85 = sext i32 %84 to i64
  %86 = getelementptr inbounds [1001 x [1001 x i32]], [1001 x [1001 x i32]]* %3, i64 0, i64 %85
  %87 = load i32, i32* %5, align 4
  %88 = sext i32 %87 to i64
  %89 = getelementptr inbounds [1001 x i32], [1001 x i32]* %86, i64 0, i64 %88
  %90 = load i32, i32* %89, align 4
  %91 = icmp eq i32 %90, 0
  br i1 %91, label %92, label %115

92:                                               ; preds = %83
  %93 = load i32, i32* %4, align 4
  %94 = sext i32 %93 to i64
  %95 = getelementptr inbounds [1001 x [1001 x i32]], [1001 x [1001 x i32]]* %3, i64 0, i64 %94
  %96 = load i32, i32* %5, align 4
  %97 = sub nsw i32 %96, 1
  %98 = sext i32 %97 to i64
  %99 = getelementptr inbounds [1001 x i32], [1001 x i32]* %95, i64 0, i64 %98
  %100 = load i32, i32* %99, align 4
  %101 = icmp eq i32 %100, 0
  br i1 %101, label %102, label %115

102:                                              ; preds = %92
  %103 = load i32, i32* %4, align 4
  %104 = add nsw i32 %103, 1
  %105 = sext i32 %104 to i64
  %106 = getelementptr inbounds [1001 x [1001 x i32]], [1001 x [1001 x i32]]* %3, i64 0, i64 %105
  %107 = load i32, i32* %5, align 4
  %108 = sext i32 %107 to i64
  %109 = getelementptr inbounds [1001 x i32], [1001 x i32]* %106, i64 0, i64 %108
  %110 = load i32, i32* %109, align 4
  %111 = icmp eq i32 %110, 0
  br i1 %111, label %112, label %115

112:                                              ; preds = %102
  %113 = load i32, i32* %4, align 4
  store i32 %113, i32* %9, align 4
  %114 = load i32, i32* %5, align 4
  store i32 %114, i32* %10, align 4
  br label %115

115:                                              ; preds = %112, %102, %92, %83
  %116 = load i32, i32* %4, align 4
  %117 = sext i32 %116 to i64
  %118 = getelementptr inbounds [1001 x [1001 x i32]], [1001 x [1001 x i32]]* %3, i64 0, i64 %117
  %119 = load i32, i32* %5, align 4
  %120 = sext i32 %119 to i64
  %121 = getelementptr inbounds [1001 x i32], [1001 x i32]* %118, i64 0, i64 %120
  %122 = load i32, i32* %121, align 4
  %123 = icmp eq i32 %122, 0
  br i1 %123, label %124, label %147

124:                                              ; preds = %115
  %125 = load i32, i32* %4, align 4
  %126 = sub nsw i32 %125, 1
  %127 = sext i32 %126 to i64
  %128 = getelementptr inbounds [1001 x [1001 x i32]], [1001 x [1001 x i32]]* %3, i64 0, i64 %127
  %129 = load i32, i32* %5, align 4
  %130 = sext i32 %129 to i64
  %131 = getelementptr inbounds [1001 x i32], [1001 x i32]* %128, i64 0, i64 %130
  %132 = load i32, i32* %131, align 4
  %133 = icmp eq i32 %132, 0
  br i1 %133, label %134, label %147

134:                                              ; preds = %124
  %135 = load i32, i32* %4, align 4
  %136 = sext i32 %135 to i64
  %137 = getelementptr inbounds [1001 x [1001 x i32]], [1001 x [1001 x i32]]* %3, i64 0, i64 %136
  %138 = load i32, i32* %5, align 4
  %139 = add nsw i32 %138, 1
  %140 = sext i32 %139 to i64
  %141 = getelementptr inbounds [1001 x i32], [1001 x i32]* %137, i64 0, i64 %140
  %142 = load i32, i32* %141, align 4
  %143 = icmp eq i32 %142, 0
  br i1 %143, label %144, label %147

144:                                              ; preds = %134
  %145 = load i32, i32* %4, align 4
  store i32 %145, i32* %11, align 4
  %146 = load i32, i32* %5, align 4
  store i32 %146, i32* %12, align 4
  br label %147

147:                                              ; preds = %144, %134, %124, %115
  %148 = load i32, i32* %4, align 4
  %149 = sext i32 %148 to i64
  %150 = getelementptr inbounds [1001 x [1001 x i32]], [1001 x [1001 x i32]]* %3, i64 0, i64 %149
  %151 = load i32, i32* %5, align 4
  %152 = sext i32 %151 to i64
  %153 = getelementptr inbounds [1001 x i32], [1001 x i32]* %150, i64 0, i64 %152
  %154 = load i32, i32* %153, align 4
  %155 = icmp eq i32 %154, 0
  br i1 %155, label %156, label %179

156:                                              ; preds = %147
  %157 = load i32, i32* %4, align 4
  %158 = sext i32 %157 to i64
  %159 = getelementptr inbounds [1001 x [1001 x i32]], [1001 x [1001 x i32]]* %3, i64 0, i64 %158
  %160 = load i32, i32* %5, align 4
  %161 = sub nsw i32 %160, 1
  %162 = sext i32 %161 to i64
  %163 = getelementptr inbounds [1001 x i32], [1001 x i32]* %159, i64 0, i64 %162
  %164 = load i32, i32* %163, align 4
  %165 = icmp eq i32 %164, 0
  br i1 %165, label %166, label %179

166:                                              ; preds = %156
  %167 = load i32, i32* %4, align 4
  %168 = sub nsw i32 %167, 1
  %169 = sext i32 %168 to i64
  %170 = getelementptr inbounds [1001 x [1001 x i32]], [1001 x [1001 x i32]]* %3, i64 0, i64 %169
  %171 = load i32, i32* %5, align 4
  %172 = sext i32 %171 to i64
  %173 = getelementptr inbounds [1001 x i32], [1001 x i32]* %170, i64 0, i64 %172
  %174 = load i32, i32* %173, align 4
  %175 = icmp eq i32 %174, 0
  br i1 %175, label %176, label %179

176:                                              ; preds = %166
  %177 = load i32, i32* %4, align 4
  store i32 %177, i32* %13, align 4
  %178 = load i32, i32* %5, align 4
  store i32 %178, i32* %14, align 4
  br label %179

179:                                              ; preds = %176, %166, %156, %147
  br label %180

180:                                              ; preds = %179
  %181 = load i32, i32* %5, align 4
  %182 = add nsw i32 %181, 1
  store i32 %182, i32* %5, align 4
  br label %47

183:                                              ; preds = %47
  br label %184

184:                                              ; preds = %183
  %185 = load i32, i32* %4, align 4
  %186 = add nsw i32 %185, 1
  store i32 %186, i32* %4, align 4
  br label %42

187:                                              ; preds = %42
  %188 = load i32, i32* %10, align 4
  %189 = load i32, i32* %8, align 4
  %190 = sub nsw i32 %188, %189
  %191 = sub nsw i32 %190, 1
  %192 = load i32, i32* %11, align 4
  %193 = load i32, i32* %7, align 4
  %194 = sub nsw i32 %192, %193
  %195 = sub nsw i32 %194, 1
  %196 = mul nsw i32 %191, %195
  store i32 %196, i32* %6, align 4
  %197 = load i32, i32* %6, align 4
  %198 = call i32 (i8*, ...) @printf(i8* getelementptr inbounds ([3 x i8], [3 x i8]* @.str, i64 0, i64 0), i32 %197)
  ret i32 0
}

declare dso_local i32 @__isoc99_scanf(i8*, ...) #1

; Function Attrs: argmemonly nounwind willreturn
declare void @llvm.memset.p0i8.i64(i8* nocapture writeonly, i8, i64, i1 immarg) #2

declare dso_local i32 @printf(i8*, ...) #1


!llvm.module.flags = !{!0}
!llvm.ident = !{!1}

!0 = !{i32 1, !"wchar_size", i32 4}
!1 = !{!"clang version 10.0.0-4ubuntu1 "}
